Certificate:
    Data:
        Version: 3 (0x2)
        Serial Number:
            4f:88:b1:cf:b8:7d:6e:57:69:e3:f2:c4:4d:19:ee:dc:c1:62:27:65
        Signature Algorithm: sha256WithRSAEncryption
        Issuer: C=US, ST=CA, L=Santa Clara, CN=Kernel DEVELOPMENT ONLY KEY, OU=Nexthop NON-PRODUCTION-USE
        Validity
            Not Before: Aug  2 14:31:25 2025 GMT
            Not After : Jul 21 14:31:25 2075 GMT
        Subject: C=US, ST=CA, L=Santa Clara, CN=Kernel DEVELOPMENT ONLY KEY, OU=Nexthop NON-PRODUCTION-USE
        Subject Public Key Info:
            Public Key Algorithm: rsaEncryption
                Public-Key: (4096 bit)
                Modulus:
                    00:b1:01:35:6d:96:58:51:07:b8:29:0e:1b:3e:09:
                    d1:34:ed:cc:ac:c7:2d:65:df:c3:1a:45:33:d4:31:
                    ee:5a:94:c8:b1:3f:8f:18:6b:ec:4e:ab:e1:f4:ff:
                    16:2e:e8:7a:4f:2c:22:fb:a1:3e:fb:78:c4:bd:01:
                    e5:37:f7:dc:7a:6f:8d:99:c3:b0:98:17:53:cc:b8:
                    86:b4:85:0c:39:ca:5a:01:3f:32:49:a0:a4:d7:4d:
                    41:6c:47:16:0e:7d:47:2c:e7:79:35:ba:02:0c:3e:
                    d5:77:07:6c:88:75:8c:49:55:d9:b3:58:59:71:7c:
                    7d:3e:e8:a9:b9:02:07:21:74:53:15:96:f4:b1:4e:
                    b9:0f:b4:e6:ef:3c:cb:38:80:0b:ff:4d:f8:c6:c8:
                    b1:6d:75:97:90:57:c4:2e:4a:37:c4:22:1a:71:5d:
                    8c:90:2f:bc:b0:72:b8:5d:3f:3a:05:c6:28:b9:4a:
                    29:6a:c0:8e:7f:6b:f7:fd:d7:d5:e2:88:90:d9:ca:
                    36:03:2f:00:df:e8:7c:af:26:1d:91:eb:5d:e0:d6:
                    aa:20:96:2d:08:2c:46:af:e3:9b:96:98:68:96:83:
                    9f:d6:98:f2:ec:b2:6b:05:64:e1:ee:18:06:39:b3:
                    e8:2e:8e:d5:4d:58:52:dd:7d:00:df:f5:26:25:9e:
                    e0:61:66:6e:9b:cf:96:aa:55:a4:10:34:3e:f6:62:
                    32:e7:71:c9:95:a2:1e:87:a1:67:79:76:ef:6c:05:
                    34:39:c6:ae:d5:24:7e:e2:7f:07:04:34:28:da:32:
                    d0:ca:ea:fa:0b:ed:6b:8e:26:29:ee:39:39:0a:d0:
                    17:3c:84:c4:0b:a2:56:c6:b4:33:da:5e:a0:c3:00:
                    49:f0:34:92:c6:54:cb:90:26:cd:e2:d7:8a:58:e8:
                    5d:b3:52:e9:0a:71:3e:1a:f4:fa:b3:b5:d2:af:3d:
                    d5:f4:18:6d:7f:30:29:0e:20:98:4e:23:5c:5a:7f:
                    57:5a:9d:c3:32:a1:42:04:48:e4:ca:ff:2a:45:54:
                    a8:0a:4a:90:93:c1:24:b3:1d:8b:0a:2a:40:29:f1:
                    6d:ee:58:c3:0d:37:d2:ca:8c:fb:eb:c1:71:fa:12:
                    6b:e2:6b:7b:26:79:77:a3:71:3c:ef:3c:79:67:66:
                    68:48:cb:90:d4:ea:46:59:39:9d:e5:15:6b:d1:44:
                    1b:bd:08:c3:3d:18:c1:74:2a:62:5f:2e:14:b8:66:
                    a7:f3:ae:40:3d:94:82:28:c1:d7:dc:8e:9c:0c:b6:
                    1e:5c:9b:b0:4e:30:64:1d:a5:b6:6b:5f:cd:dc:82:
                    1a:ee:50:8b:de:9e:a1:3e:71:eb:ab:72:00:29:b2:
                    59:a6:05
                Exponent: 65537 (0x10001)
        X509v3 extensions:
            X509v3 Subject Key Identifier: 
                6E:61:7E:B8:F6:BA:D0:92:C1:0A:7B:58:B4:63:35:03:2D:A1:8F:D5
            X509v3 Authority Key Identifier: 
                6E:61:7E:B8:F6:BA:D0:92:C1:0A:7B:58:B4:63:35:03:2D:A1:8F:D5
            X509v3 Basic Constraints: critical
                CA:TRUE
    Signature Algorithm: sha256WithRSAEncryption
    Signature Value:
        42:c7:b2:3b:70:95:45:39:b7:5e:db:63:f1:d2:60:a9:04:a5:
        88:ef:d3:b6:61:af:15:d9:2c:04:8b:a5:35:12:51:bb:c4:32:
        f6:a8:7f:d5:fa:6d:de:df:bd:b6:90:00:8f:7f:2a:f2:47:c6:
        1d:9b:29:d5:9a:9f:3e:21:8d:4b:f7:8f:d8:76:90:ef:d1:49:
        ef:98:aa:49:2e:6e:4e:cb:85:a2:62:95:a6:37:22:b5:bb:c7:
        07:2d:3b:cf:14:4f:52:3f:60:e2:3e:67:55:af:6d:e0:55:4b:
        7d:f3:32:dd:70:fe:d3:97:9a:ee:cd:24:ea:5d:d7:46:b2:2f:
        a6:50:32:23:31:c3:8b:f6:60:b2:3f:e7:42:50:e8:5c:5a:29:
        3d:fe:cd:07:75:02:04:6c:2b:7b:fc:1d:26:e1:2c:89:35:f3:
        21:94:61:f1:8a:62:0c:5d:c1:79:14:07:7b:e9:aa:89:c3:d0:
        70:9a:20:11:11:88:1f:82:0c:19:30:cb:08:1b:26:5c:27:d3:
        ec:fd:59:e2:a5:f7:43:5b:69:fa:33:ea:b4:ef:4a:92:c8:00:
        70:42:e6:82:1a:e2:20:82:a4:50:8e:63:a7:50:e1:2b:21:53:
        ac:42:04:09:0c:ca:20:c7:78:e9:d3:d2:5d:6f:6d:1c:d2:2a:
        7e:23:16:77:da:43:b0:df:04:7f:3b:f8:8b:d1:2e:c4:0a:b7:
        8d:14:99:dc:71:0f:52:67:ee:44:0b:f9:86:83:56:3a:fc:2a:
        1d:cb:02:bb:26:3d:19:7b:37:1f:98:84:8c:42:b0:7c:9a:94:
        77:51:d5:53:71:db:50:b5:15:2f:b3:5c:ed:16:1c:fd:80:16:
        90:0f:ad:d5:9e:f2:64:a1:8b:29:4a:c6:81:d2:24:42:3d:0a:
        84:4b:cb:1f:4f:6f:ea:5a:dd:19:54:44:70:94:00:bd:3e:04:
        60:e6:15:4e:a4:82:b3:85:c6:ea:e3:cd:c8:dc:be:5f:51:e2:
        eb:e9:59:5c:0f:1e:e9:de:16:4e:32:ad:db:4e:cb:c4:22:8f:
        7d:71:fb:8a:4d:c2:67:38:5d:b6:94:21:5a:1a:25:3d:3d:a8:
        01:4a:25:d2:66:ab:5a:6c:84:ad:a1:98:d5:e2:2f:4b:ce:81:
        99:14:9e:ed:7f:8b:1e:5d:7a:5c:7b:28:6d:4b:a1:01:55:19:
        7b:9d:16:c2:eb:bf:36:8e:47:62:72:02:a6:30:a1:b1:e8:47:
        20:33:29:cc:66:74:db:b2:3b:ba:0f:68:12:6f:39:21:87:7f:
        6e:1a:94:6f:6c:65:ac:cd:54:a4:25:d5:c5:60:7b:14:59:55:
        cb:4f:11:3b:6a:a5:0e:cf
-----BEGIN CERTIFICATE-----
MIIF2TCCA8GgAwIBAgIUT4ixz7h9bldp4/LETRnu3MFiJ2UwDQYJKoZIhvcNAQEL
BQAwezELMAkGA1UEBhMCVVMxCzAJBgNVBAgMAkNBMRQwEgYDVQQHDAtTYW50YSBD
bGFyYTEkMCIGA1UEAwwbS2VybmVsIERFVkVMT1BNRU5UIE9OTFkgS0VZMSMwIQYD
VQQLDBpOZXh0aG9wIE5PTi1QUk9EVUNUSU9OLVVTRTAgFw0yNTA4MDIxNDMxMjVa
GA8yMDc1MDcyMTE0MzEyNVowezELMAkGA1UEBhMCVVMxCzAJBgNVBAgMAkNBMRQw
EgYDVQQHDAtTYW50YSBDbGFyYTEkMCIGA1UEAwwbS2VybmVsIERFVkVMT1BNRU5U
IE9OTFkgS0VZMSMwIQYDVQQLDBpOZXh0aG9wIE5PTi1QUk9EVUNUSU9OLVVTRTCC
AiIwDQYJKoZIhvcNAQEBBQADggIPADCCAgoCggIBALEBNW2WWFEHuCkOGz4J0TTt
zKzHLWXfwxpFM9Qx7lqUyLE/jxhr7E6r4fT/Fi7oek8sIvuhPvt4xL0B5Tf33Hpv
jZnDsJgXU8y4hrSFDDnKWgE/MkmgpNdNQWxHFg59RyzneTW6Agw+1XcHbIh1jElV
2bNYWXF8fT7oqbkCByF0UxWW9LFOuQ+05u88yziAC/9N+MbIsW11l5BXxC5KN8Qi
GnFdjJAvvLByuF0/OgXGKLlKKWrAjn9r9/3X1eKIkNnKNgMvAN/ofK8mHZHrXeDW
qiCWLQgsRq/jm5aYaJaDn9aY8uyyawVk4e4YBjmz6C6O1U1YUt19AN/1JiWe4GFm
bpvPlqpVpBA0PvZiMudxyZWiHoehZ3l272wFNDnGrtUkfuJ/BwQ0KNoy0Mrq+gvt
a44mKe45OQrQFzyExAuiVsa0M9peoMMASfA0ksZUy5AmzeLXiljoXbNS6QpxPhr0
+rO10q891fQYbX8wKQ4gmE4jXFp/V1qdwzKhQgRI5Mr/KkVUqApKkJPBJLMdiwoq
QCnxbe5Yww030sqM++vBcfoSa+JreyZ5d6NxPO88eWdmaEjLkNTqRlk5neUVa9FE
G70Iwz0YwXQqYl8uFLhmp/OuQD2UgijB19yOnAy2HlybsE4wZB2ltmtfzdyCGu5Q
i96eoT5x66tyACmyWaYFAgMBAAGjUzBRMB0GA1UdDgQWBBRuYX649rrQksEKe1i0
YzUDLaGP1TAfBgNVHSMEGDAWgBRuYX649rrQksEKe1i0YzUDLaGP1TAPBgNVHRMB
Af8EBTADAQH/MA0GCSqGSIb3DQEBCwUAA4ICAQBCx7I7cJVFObde22Px0mCpBKWI
79O2Ya8V2SwEi6U1ElG7xDL2qH/V+m3e3722kACPfyryR8YdmynVmp8+IY1L94/Y
dpDv0UnvmKpJLm5Oy4WiYpWmNyK1u8cHLTvPFE9SP2DiPmdVr23gVUt98zLdcP7T
l5ruzSTqXddGsi+mUDIjMcOL9mCyP+dCUOhcWik9/s0HdQIEbCt7/B0m4SyJNfMh
lGHximIMXcF5FAd76aqJw9BwmiAREYgfggwZMMsIGyZcJ9Ps/VnipfdDW2n6M+q0
70qSyABwQuaCGuIggqRQjmOnUOErIVOsQgQJDMogx3jp09Jdb20c0ip+IxZ32kOw
3wR/O/iL0S7ECreNFJnccQ9SZ+5EC/mGg1Y6/CodywK7Jj0ZezcfmISMQrB8mpR3
UdVTcdtQtRUvs1ztFhz9gBaQD63VnvJkoYspSsaB0iRCPQqES8sfT2/qWt0ZVERw
lAC9PgRg5hVOpIKzhcbq483I3L5fUeLr6VlcDx7p3hZOMq3bTsvEIo99cfuKTcJn
OF22lCFaGiU9PagBSiXSZqtabIStoZjV4i9LzoGZFJ7tf4seXXpceyhtS6EBVRl7
nRbC6782jkdicgKmMKGx6EcgMynMZnTbsju6D2gSbzkhh39uGpRvbGWszVSkJdXF
YHsUWVXLTxE7aqUOzw==
-----END CERTIFICATE-----
